; Function Attrs: mustprogress nofree norecurse nosync nounwind willreturn memory(readwrite, inaccessiblemem: none) uwtable
define internal void @_ZN2cv5arucoL13_swap_pointerEPNS0_8zmaxheapEii(ptr nocapture noundef readonly %0, i32 noundef %1, i32 noundef %2) #3 {
  %4 = getelementptr inbounds i8, ptr %0, i64 16
  %5 = load ptr, ptr %4, align 8
  %6 = sext i32 %1 to i64
  %7 = getelementptr inbounds float, ptr %5, i64 %6
  %8 = load float, ptr %7, align 4
  %9 = sext i32 %2 to i64
  %10 = getelementptr inbounds float, ptr %5, i64 %9
  %11 = load float, ptr %10, align 4
  store float %11, ptr %7, align 4
  %12 = load ptr, ptr %4, align 8
  %13 = getelementptr inbounds float, ptr %12, i64 %9
  store float %8, ptr %13, align 4
  %14 = getelementptr inbounds i8, ptr %0, i64 24
  %15 = load ptr, ptr %14, align 8
  %16 = getelementptr inbounds ptr, ptr %15, i64 %6
  %17 = load ptr, ptr %16, align 8
  %18 = getelementptr inbounds ptr, ptr %15, i64 %9
  %19 = load ptr, ptr %18, align 8
  store ptr %19, ptr %16, align 8
  store ptr %17, ptr %18, align 8
  ret void
}